target datalayout = "e-m:e-p270:32:32-p271:32:32-p272:64:64-i64:64-i128:128-f80:128-n8:16:32:64-S128"
target triple = "x86_64-pc-linux-gnu"

%"class.marisa::grimoire::io::Writer" = type <{ ptr, i32, [4 x i8], ptr, i8, [7 x i8] }>
%"class.marisa::Exception" = type { %"class.std::exception", ptr, i32, i32, ptr }
%"class.std::exception" = type { ptr }

@.str = private unnamed_addr constant [142 x i8] c"generated/home/dtcxzyw/WorkSpace/Projects/compilers/llvm-opt-benchmark/bench/opencc/OpenCC/deps/marisa-0.2.6/lib/marisa/grimoire/io/writer.cc\00", align 1
@_ZTIN6marisa9ExceptionE = linkonce_odr constant { ptr, ptr, ptr } { ptr getelementptr inbounds (ptr, ptr @_ZTVN10__cxxabiv120__si_class_type_infoE, i64 2), ptr @_ZTSN6marisa9ExceptionE, ptr @_ZTISt9exception }, comdat, align 8
@.str.4 = private unnamed_addr constant [177 x i8] c"generated/home/dtcxzyw/WorkSpace/Projects/compilers/llvm-opt-benchmark/bench/opencc/OpenCC/deps/marisa-0.2.6/lib/marisa/grimoire/io/writer.cc:68: MARISA_STATE_ERROR: !is_open()\00", align 1
@_ZTVN6marisa9ExceptionE = linkonce_odr unnamed_addr constant { [5 x ptr] } { [5 x ptr] [ptr null, ptr @_ZTIN6marisa9ExceptionE, ptr @_ZNSt9exceptionD2Ev, ptr @_ZN6marisa9ExceptionD0Ev, ptr @_ZNK6marisa9Exception4whatEv] }, comdat, align 8
@_ZTVSt9exception = available_externally unnamed_addr constant { [5 x ptr] } { [5 x ptr] [ptr null, ptr @_ZTISt9exception, ptr @_ZNSt9exceptionD1Ev, ptr @_ZNSt9exceptionD0Ev, ptr @_ZNKSt9exception4whatEv] }, align 8

; Function Attrs: mustprogress nounwind uwtable
define linkonce_odr void @_ZNSt9exceptionC2Ev(ptr noundef nonnull align 8 dereferenceable(8) %0) unnamed_addr #4 comdat align 2 {
  %2 = alloca ptr, align 8
  store ptr %0, ptr %2, align 8, !tbaa !54
  %3 = load ptr, ptr %2, align 8
  store ptr getelementptr inbounds inrange(-16, 24) ({ [5 x ptr] }, ptr @_ZTVSt9exception, i32 0, i32 0, i32 2), ptr %3, align 8, !tbaa !26
  ret void
}

; Function Attrs: mustprogress nounwind uwtable
define linkonce_odr void @_ZN6marisa9ExceptionC2EPKci18marisa_error_code_S2_(ptr noundef nonnull align 8 dereferenceable(32) %0, ptr noundef %1, i32 noundef %2, i32 noundef %3, ptr noundef %4) unnamed_addr #4 comdat align 2 {
  %6 = alloca ptr, align 8
  %7 = alloca ptr, align 8
  %8 = alloca i32, align 4
  %9 = alloca i32, align 4
  %10 = alloca ptr, align 8
  store ptr %0, ptr %6, align 8, !tbaa !21
  store ptr %1, ptr %7, align 8, !tbaa !19
  store i32 %2, ptr %8, align 4, !tbaa !23
  store i32 %3, ptr %9, align 4, !tbaa !24
  store ptr %4, ptr %10, align 8, !tbaa !19
  %11 = load ptr, ptr %6, align 8
  call void @_ZNSt9exceptionC2Ev(ptr noundef nonnull align 8 dereferenceable(8) %11) #3
  store ptr getelementptr inbounds inrange(-16, 24) ({ [5 x ptr] }, ptr @_ZTVN6marisa9ExceptionE, i32 0, i32 0, i32 2), ptr %11, align 8, !tbaa !26
  %12 = getelementptr inbounds nuw %"class.marisa::Exception", ptr %11, i32 0, i32 1
  %13 = load ptr, ptr %7, align 8, !tbaa !19
  store ptr %13, ptr %12, align 8, !tbaa !28
  %14 = getelementptr inbounds nuw %"class.marisa::Exception", ptr %11, i32 0, i32 2
  %15 = load i32, ptr %8, align 4, !tbaa !23
  store i32 %15, ptr %14, align 8, !tbaa !31
  %16 = getelementptr inbounds nuw %"class.marisa::Exception", ptr %11, i32 0, i32 3
  %17 = load i32, ptr %9, align 4, !tbaa !24
  store i32 %17, ptr %16, align 4, !tbaa !32
  %18 = getelementptr inbounds nuw %"class.marisa::Exception", ptr %11, i32 0, i32 4
  %19 = load ptr, ptr %10, align 8, !tbaa !19
  store ptr %19, ptr %18, align 8, !tbaa !33
  ret void
}

; Function Attrs: mustprogress nounwind uwtable
define noundef zeroext i1 @_ZNK6marisa8grimoire2io6Writer7is_openEv(ptr noundef nonnull align 8 dereferenceable(25) %0) #4 align 2 {
  %2 = alloca ptr, align 8
  store ptr %0, ptr %2, align 8, !tbaa !3
  %3 = load ptr, ptr %2, align 8
  %4 = getelementptr inbounds nuw %"class.marisa::grimoire::io::Writer", ptr %3, i32 0, i32 0
  %5 = load ptr, ptr %4, align 8, !tbaa !8
  %6 = icmp ne ptr %5, null
  br i1 %6, label %15, label %7

7:                                                ; preds = %1
  %8 = getelementptr inbounds nuw %"class.marisa::grimoire::io::Writer", ptr %3, i32 0, i32 1
  %9 = load i32, ptr %8, align 8, !tbaa !14
  %10 = icmp ne i32 %9, -1
  br i1 %10, label %15, label %11

11:                                               ; preds = %7
  %12 = getelementptr inbounds nuw %"class.marisa::grimoire::io::Writer", ptr %3, i32 0, i32 3
  %13 = load ptr, ptr %12, align 8, !tbaa !15
  %14 = icmp ne ptr %13, null
  br label %15

15:                                               ; preds = %11, %7, %1
  %16 = phi i1 [ true, %7 ], [ true, %1 ], [ %14, %11 ]
  ret i1 %16
}

; Function Attrs: mustprogress uwtable
define void @_ZN6marisa8grimoire2io6Writer4seekEm(ptr noundef nonnull align 8 dereferenceable(25) %0, i64 noundef %1) #6 align 2 personality ptr @__gxx_personality_v0 {
  %3 = alloca ptr, align 8
  %4 = alloca i64, align 8
  %5 = alloca ptr, align 8
  %6 = alloca i1, align 1
  %7 = alloca ptr, align 8
  %8 = alloca i32, align 4
  %9 = alloca [16 x i8], align 16
  %10 = alloca [1024 x i8], align 16
  %11 = alloca i64, align 8
  store ptr %0, ptr %3, align 8, !tbaa !3
  store i64 %1, ptr %4, align 8, !tbaa !46
  %12 = load ptr, ptr %3, align 8
  %13 = call noundef zeroext i1 @_ZNK6marisa8grimoire2io6Writer7is_openEv(ptr noundef nonnull align 8 dereferenceable(25) %12)
  store i1 false, ptr %6, align 1
  br i1 %13, label %18, label %14

14:                                               ; preds = %2
  %15 = call ptr @__cxa_allocate_exception(i64 32) #3
  store ptr %15, ptr %5, align 8
  store i1 true, ptr %6, align 1
  invoke void @_ZN6marisa9ExceptionC2EPKci18marisa_error_code_S2_(ptr noundef nonnull align 8 dereferenceable(32) %15, ptr noundef @.str, i32 noundef 68, i32 noundef 1, ptr noundef @.str.4)
          to label %16 unwind label %22

16:                                               ; preds = %14
  call void @__cxa_throw(ptr %15, ptr @_ZTIN6marisa9ExceptionE, ptr @_ZNSt9exceptionD2Ev) #13
  unreachable

17:                                               ; No predecessors!
  br label %18

18:                                               ; preds = %17, %2
  %19 = load i64, ptr %4, align 8, !tbaa !46
  %20 = icmp eq i64 %19, 0
  br i1 %20, label %21, label %30

21:                                               ; preds = %18
  br label %55

22:                                               ; preds = %14
  %23 = landingpad { ptr, i32 }
          cleanup
  %24 = extractvalue { ptr, i32 } %23, 0
  store ptr %24, ptr %7, align 8
  %25 = extractvalue { ptr, i32 } %23, 1
  store i32 %25, ptr %8, align 4
  %26 = load i1, ptr %6, align 1
  br i1 %26, label %27, label %29

27:                                               ; preds = %22
  %28 = load ptr, ptr %5, align 8
  call void @__cxa_free_exception(ptr %28) #3
  br label %29

29:                                               ; preds = %27, %22
  br label %56

30:                                               ; preds = %18
  %31 = load i64, ptr %4, align 8, !tbaa !46
  %32 = icmp ule i64 %31, 16
  br i1 %32, label %33, label %36

33:                                               ; preds = %30
  call void @llvm.lifetime.start.p0(i64 16, ptr %9) #3
  call void @llvm.memset.p0.i64(ptr align 16 %9, i8 0, i64 16, i1 false)
  %34 = getelementptr inbounds [16 x i8], ptr %9, i64 0, i64 0
  %35 = load i64, ptr %4, align 8, !tbaa !46
  call void @_ZN6marisa8grimoire2io6Writer10write_dataEPKvm(ptr noundef nonnull align 8 dereferenceable(25) %12, ptr noundef %34, i64 noundef %35)
  call void @llvm.lifetime.end.p0(i64 16, ptr %9) #3
  br label %54

36:                                               ; preds = %30
  call void @llvm.lifetime.start.p0(i64 1024, ptr %10) #3
  call void @llvm.memset.p0.i64(ptr align 16 %10, i8 0, i64 1024, i1 false)
  br label %37

37:                                               ; preds = %50, %36
  call void @llvm.lifetime.start.p0(i64 8, ptr %11) #3
  %38 = load i64, ptr %4, align 8, !tbaa !46
  %39 = icmp ult i64 %38, 1024
  br i1 %39, label %40, label %42

40:                                               ; preds = %37
  %41 = load i64, ptr %4, align 8, !tbaa !46
  br label %43

42:                                               ; preds = %37
  br label %43

43:                                               ; preds = %42, %40
  %44 = phi i64 [ %41, %40 ], [ 1024, %42 ]
  store i64 %44, ptr %11, align 8, !tbaa !46
  %45 = getelementptr inbounds [1024 x i8], ptr %10, i64 0, i64 0
  %46 = load i64, ptr %11, align 8, !tbaa !46
  call void @_ZN6marisa8grimoire2io6Writer10write_dataEPKvm(ptr noundef nonnull align 8 dereferenceable(25) %12, ptr noundef %45, i64 noundef %46)
  %47 = load i64, ptr %11, align 8, !tbaa !46
  %48 = load i64, ptr %4, align 8, !tbaa !46
  %49 = sub i64 %48, %47
  store i64 %49, ptr %4, align 8, !tbaa !46
  call void @llvm.lifetime.end.p0(i64 8, ptr %11) #3
  br label %50

50:                                               ; preds = %43
  %51 = load i64, ptr %4, align 8, !tbaa !46
  %52 = icmp ne i64 %51, 0
  br i1 %52, label %37, label %53, !llvm.loop !48

53:                                               ; preds = %50
  call void @llvm.lifetime.end.p0(i64 1024, ptr %10) #3
  br label %54

54:                                               ; preds = %53, %33
  br label %55

55:                                               ; preds = %21, %54
  ret void

56:                                               ; preds = %29
  %57 = load ptr, ptr %7, align 8
  %58 = load i32, ptr %8, align 4
  %59 = insertvalue { ptr, i32 } poison, ptr %57, 0
  %60 = insertvalue { ptr, i32 } %59, i32 %58, 1
  resume { ptr, i32 } %60
}