; Function Attrs: mustprogress uwtable
define void @_ZN6marisa8grimoire2io6Writer4seekEm(ptr noundef nonnull readonly align 8 captures(none) dereferenceable(25) %0, i64 noundef %1) local_unnamed_addr #8 align 2 personality ptr @__gxx_personality_v0 {
  %3 = alloca [16 x i8], align 16
  %4 = alloca [1024 x i8], align 16
  %5 = load ptr, ptr %0, align 8, !tbaa !3
  %.not.i = icmp ne ptr %5, null
  %6 = getelementptr inbounds nuw i8, ptr %0, i64 8
  %7 = load i32, ptr %6, align 8
  %.not1.i = icmp ne i32 %7, -1
  %or.cond.i.not12 = select i1 %.not.i, i1 true, i1 %.not1.i
  %8 = getelementptr inbounds nuw i8, ptr %0, i64 16
  %9 = load ptr, ptr %8, align 8
  %10 = icmp ne ptr %9, null
  %or.cond = select i1 %or.cond.i.not12, i1 true, i1 %10
  br i1 %or.cond, label %_ZNK6marisa8grimoire2io6Writer7is_openEv.exit.thread, label %11

11:                                               ; preds = %2
  %12 = tail call ptr @__cxa_allocate_exception(i64 32) #20
  store ptr getelementptr inbounds nuw inrange(-16, 24) (i8, ptr @_ZTVN6marisa9ExceptionE, i64 16), ptr %12, align 8, !tbaa !17
  %13 = getelementptr inbounds nuw i8, ptr %12, i64 8
  store ptr @.str, ptr %13, align 8, !tbaa !19
  %14 = getelementptr inbounds nuw i8, ptr %12, i64 16
  store i32 68, ptr %14, align 8, !tbaa !24
  %15 = getelementptr inbounds nuw i8, ptr %12, i64 20
  store i32 1, ptr %15, align 4, !tbaa !25
  %16 = getelementptr inbounds nuw i8, ptr %12, i64 24
  store ptr @.str.4, ptr %16, align 8, !tbaa !26
  tail call void @__cxa_throw(ptr nonnull %12, ptr nonnull @_ZTIN6marisa9ExceptionE, ptr nonnull @_ZNSt9exceptionD2Ev) #22
  unreachable

_ZNK6marisa8grimoire2io6Writer7is_openEv.exit.thread: ; preds = %2
  %17 = icmp eq i64 %1, 0
  br i1 %17, label %26, label %18

18:                                               ; preds = %_ZNK6marisa8grimoire2io6Writer7is_openEv.exit.thread
  %19 = icmp ult i64 %1, 17
  br i1 %19, label %20, label %21

20:                                               ; preds = %18
  call void @llvm.lifetime.start.p0(i64 16, ptr nonnull %3) #20
  call void @llvm.memset.p0.i64(ptr noundef nonnull align 16 dereferenceable(16) %3, i8 0, i64 16, i1 false)
  call void @_ZN6marisa8grimoire2io6Writer10write_dataEPKvm(ptr noundef nonnull align 8 dereferenceable(25) %0, ptr noundef nonnull %3, i64 noundef %1)
  call void @llvm.lifetime.end.p0(i64 16, ptr nonnull %3) #20
  br label %26

21:                                               ; preds = %18
  call void @llvm.lifetime.start.p0(i64 1024, ptr nonnull %4) #20
  call void @llvm.memset.p0.i64(ptr noundef nonnull align 16 dereferenceable(1024) %4, i8 0, i64 1024, i1 false)
  br label %22

22:                                               ; preds = %22, %21
  %.0 = phi i64 [ %1, %21 ], [ %24, %22 ]
  %23 = call i64 @llvm.umin.i64(i64 %.0, i64 1024)
  call void @_ZN6marisa8grimoire2io6Writer10write_dataEPKvm(ptr noundef nonnull align 8 dereferenceable(25) %0, ptr noundef nonnull %4, i64 noundef %23)
  %24 = sub i64 %.0, %23
  %.not = icmp eq i64 %24, 0
  br i1 %.not, label %25, label %22, !llvm.loop !31

25:                                               ; preds = %22
  call void @llvm.lifetime.end.p0(i64 1024, ptr nonnull %4) #20
  br label %26

26:                                               ; preds = %20, %25, %_ZNK6marisa8grimoire2io6Writer7is_openEv.exit.thread
  ret void
}